; Function Attrs: mustprogress uwtable
define void @_ZN8facebook5velox11StreamArena12newTinyRangeEiPNS0_9ByteRangeES3_(ptr noundef nonnull align 8 dereferenceable(152) %this, i32 noundef %bytes, ptr nocapture readnone %0, ptr nocapture noundef writeonly %range) unnamed_addr #1 align 2 {
entry:
  %cmp = icmp slt i32 %bytes, 1
  br i1 %cmp, label %if.then, label %if.end

if.then:                                          ; preds = %entry
  tail call void @llvm.trap()
  unreachable

if.end:                                           ; preds = %entry
  %_M_finish.i = getelementptr inbounds i8, ptr %this, i64 136
  %1 = load ptr, ptr %_M_finish.i, align 8
  %_M_end_of_storage.i = getelementptr inbounds i8, ptr %this, i64 144
  %2 = load ptr, ptr %_M_end_of_storage.i, align 8
  %cmp.not.i = icmp eq ptr %1, %2
  br i1 %cmp.not.i, label %if.else.i, label %if.then.i

if.then.i:                                        ; preds = %if.end
  tail call void @_ZNSt7__cxx1112basic_stringIcSt11char_traitsIcESaIcEEC1Ev(ptr noundef nonnull align 8 dereferenceable(32) %1) #14
  %3 = load ptr, ptr %_M_finish.i, align 8
  %incdec.ptr.i = getelementptr inbounds i8, ptr %3, i64 32
  store ptr %incdec.ptr.i, ptr %_M_finish.i, align 8
  br label %_ZNSt6vectorINSt7__cxx1112basic_stringIcSt11char_traitsIcESaIcEEESaIS5_EE12emplace_backIJEEERS5_DpOT_.exit

if.else.i:                                        ; preds = %if.end
  %tinyRanges_ = getelementptr inbounds i8, ptr %this, i64 128
  tail call void @_ZNSt6vectorINSt7__cxx1112basic_stringIcSt11char_traitsIcESaIcEEESaIS5_EE17_M_realloc_insertIJEEEvN9__gnu_cxx17__normal_iteratorIPS5_S7_EEDpOT_(ptr noundef nonnull align 8 dereferenceable(24) %tinyRanges_, ptr %1)
  %.pre = load ptr, ptr %_M_finish.i, align 8
  br label %_ZNSt6vectorINSt7__cxx1112basic_stringIcSt11char_traitsIcESaIcEEESaIS5_EE12emplace_backIJEEERS5_DpOT_.exit

_ZNSt6vectorINSt7__cxx1112basic_stringIcSt11char_traitsIcESaIcEEESaIS5_EE12emplace_backIJEEERS5_DpOT_.exit: ; preds = %if.then.i, %if.else.i
  %4 = phi ptr [ %incdec.ptr.i, %if.then.i ], [ %.pre, %if.else.i ]
  %add.ptr.i.i = getelementptr inbounds i8, ptr %4, i64 -32
  %conv = zext nneg i32 %bytes to i64
  tail call void @_ZNSt7__cxx1112basic_stringIcSt11char_traitsIcESaIcEE6resizeEm(ptr noundef nonnull align 8 dereferenceable(32) %add.ptr.i.i, i64 noundef %conv)
  %position = getelementptr inbounds i8, ptr %range, i64 12
  store i32 0, ptr %position, align 4
  %5 = load ptr, ptr %_M_finish.i, align 8
  %add.ptr.i.i6 = getelementptr inbounds i8, ptr %5, i64 -32
  %call6 = tail call noundef ptr @_ZNSt7__cxx1112basic_stringIcSt11char_traitsIcESaIcEE4dataEv(ptr noundef nonnull align 8 dereferenceable(32) %add.ptr.i.i6) #14
  store ptr %call6, ptr %range, align 8
  %size = getelementptr inbounds i8, ptr %range, i64 8
  store i32 %bytes, ptr %size, align 8
  ret void
}